target datalayout = "e-m:e-p270:32:32-p271:32:32-p272:64:64-i64:64-i128:128-f80:128-n8:16:32:64-S128"
target triple = "x86_64-pc-linux-gnu"

%struct.ObjectAddress = type { i32, i32, i32 }
%struct.HeapTupleData = type { i32, %struct.ItemPointerData, i32, ptr }
%struct.ItemPointerData = type { %struct.BlockIdData, i16 }
%struct.BlockIdData = type { i16, i16 }
%struct.HeapTupleHeaderData = type { %union.anon, %struct.ItemPointerData, i16, i16, i8, [0 x i8] }
%union.anon = type { %struct.HeapTupleFields }
%struct.HeapTupleFields = type { i32, i32, %union.anon.0 }
%union.anon.0 = type { i32 }
%struct.FormData_pg_publication_namespace = type { i32, i32, i32 }

@.str.1 = private unnamed_addr constant [16 x i8] c"objectaddress.c\00", align 1
@.str.230 = private unnamed_addr constant [46 x i8] c"cache lookup failed for publication schema %u\00", align 1
@__func__.getPublicationSchemaInfo = private unnamed_addr constant [25 x i8] c"getPublicationSchemaInfo\00", align 1
@.str.231 = private unnamed_addr constant [34 x i8] c"cache lookup failed for schema %u\00", align 1

; Function Attrs: inlinehint nounwind uwtable
define internal ptr @GETSTRUCT(ptr noundef %0) #4 {
  %2 = alloca ptr, align 8
  store ptr %0, ptr %2, align 8
  %3 = load ptr, ptr %2, align 8
  %4 = getelementptr inbounds nuw %struct.HeapTupleData, ptr %3, i32 0, i32 3
  %5 = load ptr, ptr %4, align 8
  %6 = load ptr, ptr %2, align 8
  %7 = getelementptr inbounds nuw %struct.HeapTupleData, ptr %6, i32 0, i32 3
  %8 = load ptr, ptr %7, align 8
  %9 = getelementptr inbounds nuw %struct.HeapTupleHeaderData, ptr %8, i32 0, i32 4
  %10 = load i8, ptr %9, align 2
  %11 = zext i8 %10 to i32
  %12 = sext i32 %11 to i64
  %13 = getelementptr inbounds i8, ptr %5, i64 %12
  ret ptr %13
}

; Function Attrs: inlinehint nounwind uwtable
define internal i64 @ObjectIdGetDatum(i32 noundef %0) #4 {
  %2 = alloca i32, align 4
  store i32 %0, ptr %2, align 4
  %3 = load i32, ptr %2, align 4
  %4 = zext i32 %3 to i64
  ret i64 %4
}

; Function Attrs: nounwind uwtable
define internal zeroext i1 @getPublicationSchemaInfo(ptr noundef %0, i1 noundef zeroext %1, ptr noundef %2, ptr noundef %3) #0 {
  %5 = alloca i1, align 1
  %6 = alloca ptr, align 8
  %7 = alloca i8, align 1
  %8 = alloca ptr, align 8
  %9 = alloca ptr, align 8
  %10 = alloca ptr, align 8
  %11 = alloca ptr, align 8
  %12 = alloca i32, align 4
  %13 = alloca i32, align 4
  store ptr %0, ptr %6, align 8
  %14 = zext i1 %1 to i8
  store i8 %14, ptr %7, align 1
  store ptr %2, ptr %8, align 8
  store ptr %3, ptr %9, align 8
  call void @llvm.lifetime.start.p0(i64 8, ptr %10) #10
  call void @llvm.lifetime.start.p0(i64 8, ptr %11) #10
  %15 = load ptr, ptr %6, align 8
  %16 = getelementptr inbounds nuw %struct.ObjectAddress, ptr %15, i32 0, i32 1
  %17 = load i32, ptr %16, align 4
  %18 = call i64 @ObjectIdGetDatum(i32 noundef %17)
  %19 = call ptr @SearchSysCache1(i32 noundef 49, i64 noundef %18)
  store ptr %19, ptr %10, align 8
  %20 = load ptr, ptr %10, align 8
  %21 = icmp ne ptr %20, null
  br i1 %21, label %40, label %22

22:                                               ; preds = %4
  %23 = load i8, ptr %7, align 1, !range !4, !noundef !5
  %24 = trunc i8 %23 to i1
  br i1 %24, label %39, label %25

25:                                               ; preds = %22
  br label %26

26:                                               ; preds = %25
  br i1 true, label %27, label %29

27:                                               ; preds = %26
  %28 = call zeroext i1 @errstart_cold(i32 noundef 21, ptr noundef null) #11
  br i1 %28, label %31, label %36

29:                                               ; preds = %26
  %30 = call zeroext i1 @errstart(i32 noundef 21, ptr noundef null)
  br i1 %30, label %31, label %36

31:                                               ; preds = %29, %27
  %32 = load ptr, ptr %6, align 8
  %33 = getelementptr inbounds nuw %struct.ObjectAddress, ptr %32, i32 0, i32 1
  %34 = load i32, ptr %33, align 4
  %35 = call i32 (ptr, ...) @errmsg_internal(ptr noundef @.str.230, i32 noundef %34)
  call void @errfinish(ptr noundef @.str.1, i32 noundef 2872, ptr noundef @__func__.getPublicationSchemaInfo)
  br label %36

36:                                               ; preds = %31, %29, %27
  unreachable

37:                                               ; No predecessors!
  br label %38

38:                                               ; preds = %37
  br label %39

39:                                               ; preds = %38, %22
  store i1 false, ptr %5, align 1
  store i32 1, ptr %12, align 4
  br label %88

40:                                               ; preds = %4
  %41 = load ptr, ptr %10, align 8
  %42 = call ptr @GETSTRUCT(ptr noundef %41)
  store ptr %42, ptr %11, align 8
  %43 = load ptr, ptr %11, align 8
  %44 = getelementptr inbounds nuw %struct.FormData_pg_publication_namespace, ptr %43, i32 0, i32 1
  %45 = load i32, ptr %44, align 4
  %46 = load i8, ptr %7, align 1, !range !4, !noundef !5
  %47 = trunc i8 %46 to i1
  %48 = call ptr @get_publication_name(i32 noundef %45, i1 noundef zeroext %47)
  %49 = load ptr, ptr %8, align 8
  store ptr %48, ptr %49, align 8
  %50 = load ptr, ptr %8, align 8
  %51 = load ptr, ptr %50, align 8
  %52 = icmp ne ptr %51, null
  br i1 %52, label %55, label %53

53:                                               ; preds = %40
  %54 = load ptr, ptr %10, align 8
  call void @ReleaseSysCache(ptr noundef %54)
  store i1 false, ptr %5, align 1
  store i32 1, ptr %12, align 4
  br label %88

55:                                               ; preds = %40
  %56 = load ptr, ptr %11, align 8
  %57 = getelementptr inbounds nuw %struct.FormData_pg_publication_namespace, ptr %56, i32 0, i32 2
  %58 = load i32, ptr %57, align 4
  %59 = call ptr @get_namespace_name(i32 noundef %58)
  %60 = load ptr, ptr %9, align 8
  store ptr %59, ptr %60, align 8
  %61 = load ptr, ptr %9, align 8
  %62 = load ptr, ptr %61, align 8
  %63 = icmp ne ptr %62, null
  br i1 %63, label %86, label %64

64:                                               ; preds = %55
  call void @llvm.lifetime.start.p0(i64 4, ptr %13) #10
  %65 = load ptr, ptr %11, align 8
  %66 = getelementptr inbounds nuw %struct.FormData_pg_publication_namespace, ptr %65, i32 0, i32 2
  %67 = load i32, ptr %66, align 4
  store i32 %67, ptr %13, align 4
  %68 = load ptr, ptr %8, align 8
  %69 = load ptr, ptr %68, align 8
  call void @pfree(ptr noundef %69)
  %70 = load ptr, ptr %10, align 8
  call void @ReleaseSysCache(ptr noundef %70)
  %71 = load i8, ptr %7, align 1, !range !4, !noundef !5
  %72 = trunc i8 %71 to i1
  br i1 %72, label %85, label %73

73:                                               ; preds = %64
  br label %74

74:                                               ; preds = %73
  br i1 true, label %75, label %77

75:                                               ; preds = %74
  %76 = call zeroext i1 @errstart_cold(i32 noundef 21, ptr noundef null) #11
  br i1 %76, label %79, label %82

77:                                               ; preds = %74
  %78 = call zeroext i1 @errstart(i32 noundef 21, ptr noundef null)
  br i1 %78, label %79, label %82

79:                                               ; preds = %77, %75
  %80 = load i32, ptr %13, align 4
  %81 = call i32 (ptr, ...) @errmsg_internal(ptr noundef @.str.231, i32 noundef %80)
  call void @errfinish(ptr noundef @.str.1, i32 noundef 2893, ptr noundef @__func__.getPublicationSchemaInfo)
  br label %82

82:                                               ; preds = %79, %77, %75
  unreachable

83:                                               ; No predecessors!
  br label %84

84:                                               ; preds = %83
  br label %85

85:                                               ; preds = %84, %64
  store i1 false, ptr %5, align 1
  store i32 1, ptr %12, align 4
  call void @llvm.lifetime.end.p0(i64 4, ptr %13) #10
  br label %88

86:                                               ; preds = %55
  %87 = load ptr, ptr %10, align 8
  call void @ReleaseSysCache(ptr noundef %87)
  store i1 true, ptr %5, align 1
  store i32 1, ptr %12, align 4
  br label %88

88:                                               ; preds = %86, %85, %53, %39
  call void @llvm.lifetime.end.p0(i64 8, ptr %11) #10
  call void @llvm.lifetime.end.p0(i64 8, ptr %10) #10
  %89 = load i1, ptr %5, align 1
  ret i1 %89
}