; Function Attrs: nounwind uwtable
define internal fastcc noundef zeroext i1 @getPublicationSchemaInfo(ptr noundef readonly captures(none) %0, i1 noundef zeroext %1, ptr noundef nonnull captures(none) %2, ptr noundef nonnull writeonly captures(none) %3) unnamed_addr #0 {
  %5 = getelementptr inbounds nuw i8, ptr %0, i64 4
  %6 = load i32, ptr %5, align 4
  %7 = zext i32 %6 to i64
  %8 = tail call ptr @SearchSysCache1(i32 noundef 49, i64 noundef %7) #11
  %.not = icmp eq ptr %8, null
  br i1 %.not, label %9, label %14

9:                                                ; preds = %4
  br i1 %1, label %33, label %10

10:                                               ; preds = %9
  %11 = tail call zeroext i1 @errstart_cold(i32 noundef 21, ptr noundef null) #12
  tail call void @llvm.assume(i1 %11)
  %12 = load i32, ptr %5, align 4
  %13 = tail call i32 (ptr, ...) @errmsg_internal(ptr noundef nonnull @.str.230, i32 noundef %12) #11
  tail call void @errfinish(ptr noundef nonnull @.str.1, i32 noundef 2872, ptr noundef nonnull @__func__.getPublicationSchemaInfo) #11
  unreachable

14:                                               ; preds = %4
  %15 = getelementptr i8, ptr %8, i64 16
  %.val = load ptr, ptr %15, align 8
  %16 = getelementptr inbounds nuw i8, ptr %.val, i64 22
  %17 = load i8, ptr %16, align 2
  %18 = zext i8 %17 to i64
  %19 = getelementptr inbounds nuw i8, ptr %.val, i64 %18
  %20 = getelementptr inbounds nuw i8, ptr %19, i64 4
  %21 = load i32, ptr %20, align 4
  %22 = tail call ptr @get_publication_name(i32 noundef %21, i1 noundef zeroext %1) #11
  store ptr %22, ptr %2, align 8
  %.not20 = icmp ne ptr %22, null
  br i1 %.not20, label %23, label %.sink.split

23:                                               ; preds = %14
  %24 = getelementptr inbounds nuw i8, ptr %19, i64 8
  %25 = load i32, ptr %24, align 4
  %26 = tail call ptr @get_namespace_name(i32 noundef %25) #11
  store ptr %26, ptr %3, align 8
  %.not21 = icmp eq ptr %26, null
  br i1 %.not21, label %27, label %.sink.split

27:                                               ; preds = %23
  %28 = load i32, ptr %24, align 4
  %29 = load ptr, ptr %2, align 8
  tail call void @pfree(ptr noundef %29) #11
  tail call void @ReleaseSysCache(ptr noundef nonnull %8) #11
  br i1 %1, label %33, label %30

30:                                               ; preds = %27
  %31 = tail call zeroext i1 @errstart_cold(i32 noundef 21, ptr noundef null) #12
  tail call void @llvm.assume(i1 %31)
  %32 = tail call i32 (ptr, ...) @errmsg_internal(ptr noundef nonnull @.str.231, i32 noundef %28) #11
  tail call void @errfinish(ptr noundef nonnull @.str.1, i32 noundef 2893, ptr noundef nonnull @__func__.getPublicationSchemaInfo) #11
  unreachable

.sink.split:                                      ; preds = %23, %14
  tail call void @ReleaseSysCache(ptr noundef nonnull %8) #11
  br label %33

33:                                               ; preds = %.sink.split, %27, %9
  %.0 = phi i1 [ false, %9 ], [ false, %27 ], [ %.not20, %.sink.split ]
  ret i1 %.0
}